target datalayout = "e-m:e-p270:32:32-p271:32:32-p272:64:64-i64:64-i128:128-f80:128-n8:16:32:64-S128"
target triple = "x86_64-pc-linux-gnu"

%struct.hwloc_topology = type { i32, i32, i32, ptr, ptr, i64, [20 x i32], [20 x i32], i64, i64, i32, ptr, i64, ptr, i64, [6 x %struct.hwloc_special_level_s], ptr, ptr, %struct.hwloc_binding_hooks, %struct.hwloc_topology_support, %struct.hwloc_infos_s, ptr, ptr, i32, ptr, ptr, i32, i32, ptr, i32, i32, ptr, i32, i32, i32, [5 x float], i32, ptr, ptr, i32, i32, ptr, i32, %struct.hwloc_numanode_attr_s, i32, i32, ptr, i64, i32, ptr, ptr, ptr }
%struct.hwloc_special_level_s = type { i32, ptr, ptr, ptr }
%struct.hwloc_binding_hooks = type { ptr, ptr, ptr, ptr, ptr, ptr, ptr, ptr, ptr, ptr, ptr, ptr, ptr, ptr, ptr, ptr, ptr, ptr, ptr, ptr, ptr, ptr, ptr, ptr }
%struct.hwloc_topology_support = type { ptr, ptr, ptr, ptr }
%struct.hwloc_infos_s = type { ptr, i32, i32 }
%struct.hwloc_numanode_attr_s = type { i64, i32, ptr }
%struct.hwloc_internal_memattr_s = type { ptr, i64, i32, i32, ptr }
%struct.hwloc_internal_memattr_target_s = type { ptr, i32, i32, i64, i64, i32, ptr }
%struct.hwloc_internal_memattr_initiator_s = type { %struct.hwloc_internal_location_s, i64 }
%struct.hwloc_internal_location_s = type { i32, %union.anon }
%union.anon = type { %struct.anon }
%struct.anon = type { ptr, i64, i32 }

; Function Attrs: nounwind uwtable
define internal void @hwloc__imi_destroy(ptr noundef %0) #0 {
  %2 = alloca ptr, align 8
  store ptr %0, ptr %2, align 8, !tbaa !59
  %3 = load ptr, ptr %2, align 8, !tbaa !59
  %4 = getelementptr inbounds nuw %struct.hwloc_internal_memattr_initiator_s, ptr %3, i32 0, i32 0
  %5 = getelementptr inbounds nuw %struct.hwloc_internal_location_s, ptr %4, i32 0, i32 0
  %6 = load i32, ptr %5, align 8, !tbaa !60
  %7 = icmp eq i32 %6, 1
  br i1 %7, label %8, label %13

8:                                                ; preds = %1
  %9 = load ptr, ptr %2, align 8, !tbaa !59
  %10 = getelementptr inbounds nuw %struct.hwloc_internal_memattr_initiator_s, ptr %9, i32 0, i32 0
  %11 = getelementptr inbounds nuw %struct.hwloc_internal_location_s, ptr %10, i32 0, i32 1
  %12 = load ptr, ptr %11, align 8, !tbaa !63
  call void @hwloc_bitmap_free(ptr noundef %12)
  br label %13

13:                                               ; preds = %8, %1
  ret void
}

; Function Attrs: nounwind uwtable
define internal void @hwloc__imtg_destroy(ptr noundef %0, ptr noundef %1) #0 {
  %3 = alloca ptr, align 8
  %4 = alloca ptr, align 8
  %5 = alloca i32, align 4
  store ptr %0, ptr %3, align 8, !tbaa !34
  store ptr %1, ptr %4, align 8, !tbaa !49
  %6 = load ptr, ptr %3, align 8, !tbaa !34
  %7 = getelementptr inbounds nuw %struct.hwloc_internal_memattr_s, ptr %6, i32 0, i32 1
  %8 = load i64, ptr %7, align 8, !tbaa !41
  %9 = and i64 %8, 4
  %10 = icmp ne i64 %9, 0
  br i1 %10, label %11, label %29

11:                                               ; preds = %2
  call void @llvm.lifetime.start.p0(i64 4, ptr %5) #14
  store i32 0, ptr %5, align 4, !tbaa !45
  br label %12

12:                                               ; preds = %25, %11
  %13 = load i32, ptr %5, align 4, !tbaa !45
  %14 = load ptr, ptr %4, align 8, !tbaa !49
  %15 = getelementptr inbounds nuw %struct.hwloc_internal_memattr_target_s, ptr %14, i32 0, i32 5
  %16 = load i32, ptr %15, align 8, !tbaa !50
  %17 = icmp ult i32 %13, %16
  br i1 %17, label %18, label %28

18:                                               ; preds = %12
  %19 = load ptr, ptr %4, align 8, !tbaa !49
  %20 = getelementptr inbounds nuw %struct.hwloc_internal_memattr_target_s, ptr %19, i32 0, i32 6
  %21 = load ptr, ptr %20, align 8, !tbaa !54
  %22 = load i32, ptr %5, align 4, !tbaa !45
  %23 = zext i32 %22 to i64
  %24 = getelementptr inbounds nuw %struct.hwloc_internal_memattr_initiator_s, ptr %21, i64 %23
  call void @hwloc__imi_destroy(ptr noundef %24)
  br label %25

25:                                               ; preds = %18
  %26 = load i32, ptr %5, align 4, !tbaa !45
  %27 = add i32 %26, 1
  store i32 %27, ptr %5, align 4, !tbaa !45
  br label %12, !llvm.loop !55

28:                                               ; preds = %12
  call void @llvm.lifetime.end.p0(i64 4, ptr %5) #14
  br label %29

29:                                               ; preds = %28, %2
  %30 = load ptr, ptr %4, align 8, !tbaa !49
  %31 = getelementptr inbounds nuw %struct.hwloc_internal_memattr_target_s, ptr %30, i32 0, i32 6
  %32 = load ptr, ptr %31, align 8, !tbaa !54
  call void @free(ptr noundef %32) #14
  ret void
}

; Function Attrs: nounwind uwtable
define hidden void @hwloc_internal_memattrs_destroy(ptr noundef %0) #0 {
  %2 = alloca ptr, align 8
  %3 = alloca i32, align 4
  %4 = alloca ptr, align 8
  %5 = alloca i32, align 4
  store ptr %0, ptr %2, align 8, !tbaa !3
  call void @llvm.lifetime.start.p0(i64 4, ptr %3) #14
  store i32 0, ptr %3, align 4, !tbaa !45
  br label %6

6:                                                ; preds = %50, %1
  %7 = load i32, ptr %3, align 4, !tbaa !45
  %8 = load ptr, ptr %2, align 8, !tbaa !3
  %9 = getelementptr inbounds nuw %struct.hwloc_topology, ptr %8, i32 0, i32 27
  %10 = load i32, ptr %9, align 4, !tbaa !8
  %11 = icmp ult i32 %7, %10
  br i1 %11, label %12, label %53

12:                                               ; preds = %6
  call void @llvm.lifetime.start.p0(i64 8, ptr %4) #14
  %13 = load ptr, ptr %2, align 8, !tbaa !3
  %14 = getelementptr inbounds nuw %struct.hwloc_topology, ptr %13, i32 0, i32 28
  %15 = load ptr, ptr %14, align 8, !tbaa !33
  %16 = load i32, ptr %3, align 4, !tbaa !45
  %17 = zext i32 %16 to i64
  %18 = getelementptr inbounds nuw %struct.hwloc_internal_memattr_s, ptr %15, i64 %17
  store ptr %18, ptr %4, align 8, !tbaa !34
  call void @llvm.lifetime.start.p0(i64 4, ptr %5) #14
  store i32 0, ptr %5, align 4, !tbaa !45
  br label %19

19:                                               ; preds = %33, %12
  %20 = load i32, ptr %5, align 4, !tbaa !45
  %21 = load ptr, ptr %4, align 8, !tbaa !34
  %22 = getelementptr inbounds nuw %struct.hwloc_internal_memattr_s, ptr %21, i32 0, i32 3
  %23 = load i32, ptr %22, align 4, !tbaa !43
  %24 = icmp ult i32 %20, %23
  br i1 %24, label %25, label %36

25:                                               ; preds = %19
  %26 = load ptr, ptr %4, align 8, !tbaa !34
  %27 = load ptr, ptr %4, align 8, !tbaa !34
  %28 = getelementptr inbounds nuw %struct.hwloc_internal_memattr_s, ptr %27, i32 0, i32 4
  %29 = load ptr, ptr %28, align 8, !tbaa !44
  %30 = load i32, ptr %5, align 4, !tbaa !45
  %31 = zext i32 %30 to i64
  %32 = getelementptr inbounds nuw %struct.hwloc_internal_memattr_target_s, ptr %29, i64 %31
  call void @hwloc__imtg_destroy(ptr noundef %26, ptr noundef %32)
  br label %33

33:                                               ; preds = %25
  %34 = load i32, ptr %5, align 4, !tbaa !45
  %35 = add i32 %34, 1
  store i32 %35, ptr %5, align 4, !tbaa !45
  br label %19, !llvm.loop !46

36:                                               ; preds = %19
  %37 = load ptr, ptr %4, align 8, !tbaa !34
  %38 = getelementptr inbounds nuw %struct.hwloc_internal_memattr_s, ptr %37, i32 0, i32 4
  %39 = load ptr, ptr %38, align 8, !tbaa !44
  call void @free(ptr noundef %39) #14
  %40 = load ptr, ptr %4, align 8, !tbaa !34
  %41 = getelementptr inbounds nuw %struct.hwloc_internal_memattr_s, ptr %40, i32 0, i32 2
  %42 = load i32, ptr %41, align 8, !tbaa !42
  %43 = and i32 %42, 1
  %44 = icmp ne i32 %43, 0
  br i1 %44, label %49, label %45

45:                                               ; preds = %36
  %46 = load ptr, ptr %4, align 8, !tbaa !34
  %47 = getelementptr inbounds nuw %struct.hwloc_internal_memattr_s, ptr %46, i32 0, i32 0
  %48 = load ptr, ptr %47, align 8, !tbaa !38
  call void @free(ptr noundef %48) #14
  br label %49

49:                                               ; preds = %45, %36
  call void @llvm.lifetime.end.p0(i64 4, ptr %5) #14
  call void @llvm.lifetime.end.p0(i64 8, ptr %4) #14
  br label %50

50:                                               ; preds = %49
  %51 = load i32, ptr %3, align 4, !tbaa !45
  %52 = add i32 %51, 1
  store i32 %52, ptr %3, align 4, !tbaa !45
  br label %6, !llvm.loop !48

53:                                               ; preds = %6
  %54 = load ptr, ptr %2, align 8, !tbaa !3
  %55 = getelementptr inbounds nuw %struct.hwloc_topology, ptr %54, i32 0, i32 28
  %56 = load ptr, ptr %55, align 8, !tbaa !33
  call void @free(ptr noundef %56) #14
  %57 = load ptr, ptr %2, align 8, !tbaa !3
  %58 = getelementptr inbounds nuw %struct.hwloc_topology, ptr %57, i32 0, i32 28
  store ptr null, ptr %58, align 8, !tbaa !33
  %59 = load ptr, ptr %2, align 8, !tbaa !3
  %60 = getelementptr inbounds nuw %struct.hwloc_topology, ptr %59, i32 0, i32 27
  store i32 0, ptr %60, align 4, !tbaa !8
  call void @llvm.lifetime.end.p0(i64 4, ptr %3) #14
  ret void
}