; Function Attrs: nounwind uwtable
define hidden void @hwloc_internal_memattrs_destroy(ptr noundef captures(none) %0) local_unnamed_addr #3 {
  %2 = getelementptr inbounds nuw i8, ptr %0, i64 748
  %3 = load i32, ptr %2, align 4, !tbaa !3
  %.not22 = icmp eq i32 %3, 0
  br i1 %.not22, label %._crit_edge21, label %.lr.ph20

.lr.ph20:                                         ; preds = %1
  %4 = getelementptr inbounds nuw i8, ptr %0, i64 752
  br label %5

5:                                                ; preds = %.lr.ph20, %43
  %indvars.iv25 = phi i64 [ 0, %.lr.ph20 ], [ %indvars.iv.next26, %43 ]
  %6 = load ptr, ptr %4, align 8, !tbaa !31
  %7 = getelementptr inbounds nuw %struct.hwloc_internal_memattr_s, ptr %6, i64 %indvars.iv25
  %8 = getelementptr inbounds nuw i8, ptr %7, i64 20
  %9 = load i32, ptr %8, align 4, !tbaa !38
  %.not23 = icmp eq i32 %9, 0
  br i1 %.not23, label %._crit_edge, label %.lr.ph

.lr.ph:                                           ; preds = %5
  %10 = getelementptr inbounds nuw i8, ptr %7, i64 24
  %11 = getelementptr i8, ptr %7, i64 8
  br label %12

12:                                               ; preds = %.lr.ph, %hwloc__imtg_destroy.exit
  %indvars.iv = phi i64 [ 0, %.lr.ph ], [ %indvars.iv.next, %hwloc__imtg_destroy.exit ]
  %13 = load ptr, ptr %10, align 8, !tbaa !39
  %14 = getelementptr inbounds nuw %struct.hwloc_internal_memattr_target_s, ptr %13, i64 %indvars.iv
  %.val = load i64, ptr %11, align 8, !tbaa !36
  %15 = and i64 %.val, 4
  %.not.i = icmp eq i64 %15, 0
  br i1 %.not.i, label %hwloc__imtg_destroy.exit, label %.preheader.i

.preheader.i:                                     ; preds = %12
  %16 = getelementptr inbounds nuw i8, ptr %14, i64 32
  %17 = load i32, ptr %16, align 8, !tbaa !40
  %.not2.i = icmp eq i32 %17, 0
  br i1 %.not2.i, label %hwloc__imtg_destroy.exit, label %.lr.ph.i

.lr.ph.i:                                         ; preds = %.preheader.i
  %18 = getelementptr inbounds nuw i8, ptr %14, i64 40
  br label %19

19:                                               ; preds = %hwloc__imi_destroy.exit.i, %.lr.ph.i
  %20 = phi i32 [ %17, %.lr.ph.i ], [ %28, %hwloc__imi_destroy.exit.i ]
  %indvars.iv.i = phi i64 [ 0, %.lr.ph.i ], [ %indvars.iv.next.i, %hwloc__imi_destroy.exit.i ]
  %21 = load ptr, ptr %18, align 8, !tbaa !44
  %22 = getelementptr inbounds nuw %struct.hwloc_internal_memattr_initiator_s, ptr %21, i64 %indvars.iv.i
  %23 = load i32, ptr %22, align 8, !tbaa !45
  %24 = icmp eq i32 %23, 1
  br i1 %24, label %25, label %hwloc__imi_destroy.exit.i

25:                                               ; preds = %19
  %26 = getelementptr inbounds nuw i8, ptr %22, i64 8
  %27 = load ptr, ptr %26, align 8, !tbaa !48
  tail call void @hwloc_bitmap_free(ptr noundef %27) #29
  %.pre.i = load i32, ptr %16, align 8, !tbaa !40
  br label %hwloc__imi_destroy.exit.i

hwloc__imi_destroy.exit.i:                        ; preds = %25, %19
  %28 = phi i32 [ %20, %19 ], [ %.pre.i, %25 ]
  %indvars.iv.next.i = add nuw nsw i64 %indvars.iv.i, 1
  %29 = zext i32 %28 to i64
  %30 = icmp samesign ult i64 %indvars.iv.next.i, %29
  br i1 %30, label %19, label %hwloc__imtg_destroy.exit, !llvm.loop !49

hwloc__imtg_destroy.exit:                         ; preds = %hwloc__imi_destroy.exit.i, %12, %.preheader.i
  %31 = getelementptr inbounds nuw i8, ptr %14, i64 40
  %32 = load ptr, ptr %31, align 8, !tbaa !44
  tail call void @free(ptr noundef %32) #29
  %indvars.iv.next = add nuw nsw i64 %indvars.iv, 1
  %33 = load i32, ptr %8, align 4, !tbaa !38
  %34 = zext i32 %33 to i64
  %35 = icmp samesign ult i64 %indvars.iv.next, %34
  br i1 %35, label %12, label %._crit_edge, !llvm.loop !51

._crit_edge:                                      ; preds = %hwloc__imtg_destroy.exit, %5
  %36 = getelementptr inbounds nuw i8, ptr %7, i64 24
  %37 = load ptr, ptr %36, align 8, !tbaa !39
  tail call void @free(ptr noundef %37) #29
  %38 = getelementptr inbounds nuw i8, ptr %7, i64 16
  %39 = load i32, ptr %38, align 8, !tbaa !37
  %40 = and i32 %39, 1
  %.not = icmp eq i32 %40, 0
  br i1 %.not, label %41, label %43

41:                                               ; preds = %._crit_edge
  %42 = load ptr, ptr %7, align 8, !tbaa !32
  tail call void @free(ptr noundef %42) #29
  br label %43

43:                                               ; preds = %41, %._crit_edge
  %indvars.iv.next26 = add nuw nsw i64 %indvars.iv25, 1
  %44 = load i32, ptr %2, align 4, !tbaa !3
  %45 = zext i32 %44 to i64
  %46 = icmp samesign ult i64 %indvars.iv.next26, %45
  br i1 %46, label %5, label %._crit_edge21, !llvm.loop !52

._crit_edge21:                                    ; preds = %43, %1
  %47 = getelementptr inbounds nuw i8, ptr %0, i64 752
  %48 = load ptr, ptr %47, align 8, !tbaa !31
  tail call void @free(ptr noundef %48) #29
  store ptr null, ptr %47, align 8, !tbaa !31
  store i32 0, ptr %2, align 4, !tbaa !3
  ret void
}